; Function Attrs: mustprogress nounwind uwtable
define void @_ZN3g2o11CommandArgsD2Ev(ptr noundef nonnull align 8 dereferenceable(144) %0) unnamed_addr #3 align 2 personality ptr @__gxx_personality_v0 {
  store ptr getelementptr inbounds inrange(-16, 16) (i8, ptr @_ZTVN3g2o11CommandArgsE, i64 16), ptr %0, align 8
  %2 = getelementptr inbounds nuw i8, ptr %0, i64 112
  tail call void @_ZNSt7__cxx1112basic_stringIcSt11char_traitsIcESaIcEED1Ev(ptr noundef nonnull align 8 dereferenceable(32) %2) #20
  %3 = getelementptr inbounds nuw i8, ptr %0, i64 80
  tail call void @_ZNSt7__cxx1112basic_stringIcSt11char_traitsIcESaIcEED1Ev(ptr noundef nonnull align 8 dereferenceable(32) %3) #20
  %4 = getelementptr inbounds nuw i8, ptr %0, i64 56
  %5 = load ptr, ptr %4, align 8
  %6 = getelementptr inbounds i8, ptr %0, i64 64
  %7 = load ptr, ptr %6, align 8
  %.not4.i.i.i.i = icmp eq ptr %5, %7
  br i1 %.not4.i.i.i.i, label %_ZSt8_DestroyIPN3g2o11CommandArgs15CommandArgumentES2_EvT_S4_RSaIT0_E.exit.i, label %.lr.ph.i.i.i.i

.lr.ph.i.i.i.i:                                   ; preds = %1, %.lr.ph.i.i.i.i
  %.05.i.i.i.i = phi ptr [ %9, %.lr.ph.i.i.i.i ], [ %5, %1 ]
  %8 = getelementptr inbounds nuw i8, ptr %.05.i.i.i.i, i64 32
  tail call void @_ZNSt7__cxx1112basic_stringIcSt11char_traitsIcESaIcEED1Ev(ptr noundef nonnull align 8 dereferenceable(32) %8) #20
  tail call void @_ZNSt7__cxx1112basic_stringIcSt11char_traitsIcESaIcEED1Ev(ptr noundef nonnull align 8 dereferenceable(32) %.05.i.i.i.i) #20
  %9 = getelementptr inbounds i8, ptr %.05.i.i.i.i, i64 88
  %.not.i.i.i.i = icmp eq ptr %9, %7
  br i1 %.not.i.i.i.i, label %_ZSt8_DestroyIPN3g2o11CommandArgs15CommandArgumentES2_EvT_S4_RSaIT0_E.exitthread-pre-split.i, label %.lr.ph.i.i.i.i, !llvm.loop !4

_ZSt8_DestroyIPN3g2o11CommandArgs15CommandArgumentES2_EvT_S4_RSaIT0_E.exitthread-pre-split.i: ; preds = %.lr.ph.i.i.i.i
  %.pr.i = load ptr, ptr %4, align 8
  br label %_ZSt8_DestroyIPN3g2o11CommandArgs15CommandArgumentES2_EvT_S4_RSaIT0_E.exit.i

_ZSt8_DestroyIPN3g2o11CommandArgs15CommandArgumentES2_EvT_S4_RSaIT0_E.exit.i: ; preds = %_ZSt8_DestroyIPN3g2o11CommandArgs15CommandArgumentES2_EvT_S4_RSaIT0_E.exitthread-pre-split.i, %1
  %10 = phi ptr [ %.pr.i, %_ZSt8_DestroyIPN3g2o11CommandArgs15CommandArgumentES2_EvT_S4_RSaIT0_E.exitthread-pre-split.i ], [ %5, %1 ]
  %.not.i.i.i = icmp eq ptr %10, null
  br i1 %.not.i.i.i, label %_ZNSt6vectorIN3g2o11CommandArgs15CommandArgumentESaIS2_EED2Ev.exit, label %11

11:                                               ; preds = %_ZSt8_DestroyIPN3g2o11CommandArgs15CommandArgumentES2_EvT_S4_RSaIT0_E.exit.i
  %12 = getelementptr inbounds i8, ptr %0, i64 72
  %13 = load ptr, ptr %12, align 8
  %14 = ptrtoint ptr %13 to i64
  %15 = ptrtoint ptr %10 to i64
  %16 = sub i64 %14, %15
  tail call void @_ZdlPvm(ptr noundef nonnull %10, i64 noundef %16) #21
  br label %_ZNSt6vectorIN3g2o11CommandArgs15CommandArgumentESaIS2_EED2Ev.exit

_ZNSt6vectorIN3g2o11CommandArgs15CommandArgumentESaIS2_EED2Ev.exit: ; preds = %_ZSt8_DestroyIPN3g2o11CommandArgs15CommandArgumentES2_EvT_S4_RSaIT0_E.exit.i, %11
  %17 = getelementptr inbounds nuw i8, ptr %0, i64 32
  %18 = load ptr, ptr %17, align 8
  %19 = getelementptr inbounds i8, ptr %0, i64 40
  %20 = load ptr, ptr %19, align 8
  %.not4.i.i.i.i1 = icmp eq ptr %18, %20
  br i1 %.not4.i.i.i.i1, label %_ZSt8_DestroyIPN3g2o11CommandArgs15CommandArgumentES2_EvT_S4_RSaIT0_E.exit.i7, label %.lr.ph.i.i.i.i2

.lr.ph.i.i.i.i2:                                  ; preds = %_ZNSt6vectorIN3g2o11CommandArgs15CommandArgumentESaIS2_EED2Ev.exit, %.lr.ph.i.i.i.i2
  %.05.i.i.i.i3 = phi ptr [ %22, %.lr.ph.i.i.i.i2 ], [ %18, %_ZNSt6vectorIN3g2o11CommandArgs15CommandArgumentESaIS2_EED2Ev.exit ]
  %21 = getelementptr inbounds nuw i8, ptr %.05.i.i.i.i3, i64 32
  tail call void @_ZNSt7__cxx1112basic_stringIcSt11char_traitsIcESaIcEED1Ev(ptr noundef nonnull align 8 dereferenceable(32) %21) #20
  tail call void @_ZNSt7__cxx1112basic_stringIcSt11char_traitsIcESaIcEED1Ev(ptr noundef nonnull align 8 dereferenceable(32) %.05.i.i.i.i3) #20
  %22 = getelementptr inbounds i8, ptr %.05.i.i.i.i3, i64 88
  %.not.i.i.i.i4 = icmp eq ptr %22, %20
  br i1 %.not.i.i.i.i4, label %_ZSt8_DestroyIPN3g2o11CommandArgs15CommandArgumentES2_EvT_S4_RSaIT0_E.exitthread-pre-split.i5, label %.lr.ph.i.i.i.i2, !llvm.loop !4

_ZSt8_DestroyIPN3g2o11CommandArgs15CommandArgumentES2_EvT_S4_RSaIT0_E.exitthread-pre-split.i5: ; preds = %.lr.ph.i.i.i.i2
  %.pr.i6 = load ptr, ptr %17, align 8
  br label %_ZSt8_DestroyIPN3g2o11CommandArgs15CommandArgumentES2_EvT_S4_RSaIT0_E.exit.i7

_ZSt8_DestroyIPN3g2o11CommandArgs15CommandArgumentES2_EvT_S4_RSaIT0_E.exit.i7: ; preds = %_ZSt8_DestroyIPN3g2o11CommandArgs15CommandArgumentES2_EvT_S4_RSaIT0_E.exitthread-pre-split.i5, %_ZNSt6vectorIN3g2o11CommandArgs15CommandArgumentESaIS2_EED2Ev.exit
  %23 = phi ptr [ %.pr.i6, %_ZSt8_DestroyIPN3g2o11CommandArgs15CommandArgumentES2_EvT_S4_RSaIT0_E.exitthread-pre-split.i5 ], [ %18, %_ZNSt6vectorIN3g2o11CommandArgs15CommandArgumentESaIS2_EED2Ev.exit ]
  %.not.i.i.i8 = icmp eq ptr %23, null
  br i1 %.not.i.i.i8, label %_ZNSt6vectorIN3g2o11CommandArgs15CommandArgumentESaIS2_EED2Ev.exit9, label %24

24:                                               ; preds = %_ZSt8_DestroyIPN3g2o11CommandArgs15CommandArgumentES2_EvT_S4_RSaIT0_E.exit.i7
  %25 = getelementptr inbounds i8, ptr %0, i64 48
  %26 = load ptr, ptr %25, align 8
  %27 = ptrtoint ptr %26 to i64
  %28 = ptrtoint ptr %23 to i64
  %29 = sub i64 %27, %28
  tail call void @_ZdlPvm(ptr noundef nonnull %23, i64 noundef %29) #21
  br label %_ZNSt6vectorIN3g2o11CommandArgs15CommandArgumentESaIS2_EED2Ev.exit9

_ZNSt6vectorIN3g2o11CommandArgs15CommandArgumentESaIS2_EED2Ev.exit9: ; preds = %_ZSt8_DestroyIPN3g2o11CommandArgs15CommandArgumentES2_EvT_S4_RSaIT0_E.exit.i7, %24
  %30 = getelementptr inbounds nuw i8, ptr %0, i64 8
  %31 = load ptr, ptr %30, align 8
  %32 = getelementptr inbounds i8, ptr %0, i64 16
  %33 = load ptr, ptr %32, align 8
  %.not4.i.i.i.i10 = icmp eq ptr %31, %33
  br i1 %.not4.i.i.i.i10, label %_ZSt8_DestroyIPN3g2o11CommandArgs15CommandArgumentES2_EvT_S4_RSaIT0_E.exit.i16, label %.lr.ph.i.i.i.i11

.lr.ph.i.i.i.i11:                                 ; preds = %_ZNSt6vectorIN3g2o11CommandArgs15CommandArgumentESaIS2_EED2Ev.exit9, %.lr.ph.i.i.i.i11
  %.05.i.i.i.i12 = phi ptr [ %35, %.lr.ph.i.i.i.i11 ], [ %31, %_ZNSt6vectorIN3g2o11CommandArgs15CommandArgumentESaIS2_EED2Ev.exit9 ]
  %34 = getelementptr inbounds nuw i8, ptr %.05.i.i.i.i12, i64 32
  tail call void @_ZNSt7__cxx1112basic_stringIcSt11char_traitsIcESaIcEED1Ev(ptr noundef nonnull align 8 dereferenceable(32) %34) #20
  tail call void @_ZNSt7__cxx1112basic_stringIcSt11char_traitsIcESaIcEED1Ev(ptr noundef nonnull align 8 dereferenceable(32) %.05.i.i.i.i12) #20
  %35 = getelementptr inbounds i8, ptr %.05.i.i.i.i12, i64 88
  %.not.i.i.i.i13 = icmp eq ptr %35, %33
  br i1 %.not.i.i.i.i13, label %_ZSt8_DestroyIPN3g2o11CommandArgs15CommandArgumentES2_EvT_S4_RSaIT0_E.exitthread-pre-split.i14, label %.lr.ph.i.i.i.i11, !llvm.loop !4

_ZSt8_DestroyIPN3g2o11CommandArgs15CommandArgumentES2_EvT_S4_RSaIT0_E.exitthread-pre-split.i14: ; preds = %.lr.ph.i.i.i.i11
  %.pr.i15 = load ptr, ptr %30, align 8
  br label %_ZSt8_DestroyIPN3g2o11CommandArgs15CommandArgumentES2_EvT_S4_RSaIT0_E.exit.i16

_ZSt8_DestroyIPN3g2o11CommandArgs15CommandArgumentES2_EvT_S4_RSaIT0_E.exit.i16: ; preds = %_ZSt8_DestroyIPN3g2o11CommandArgs15CommandArgumentES2_EvT_S4_RSaIT0_E.exitthread-pre-split.i14, %_ZNSt6vectorIN3g2o11CommandArgs15CommandArgumentESaIS2_EED2Ev.exit9
  %36 = phi ptr [ %.pr.i15, %_ZSt8_DestroyIPN3g2o11CommandArgs15CommandArgumentES2_EvT_S4_RSaIT0_E.exitthread-pre-split.i14 ], [ %31, %_ZNSt6vectorIN3g2o11CommandArgs15CommandArgumentESaIS2_EED2Ev.exit9 ]
  %.not.i.i.i17 = icmp eq ptr %36, null
  br i1 %.not.i.i.i17, label %_ZNSt6vectorIN3g2o11CommandArgs15CommandArgumentESaIS2_EED2Ev.exit18, label %37

37:                                               ; preds = %_ZSt8_DestroyIPN3g2o11CommandArgs15CommandArgumentES2_EvT_S4_RSaIT0_E.exit.i16
  %38 = getelementptr inbounds i8, ptr %0, i64 24
  %39 = load ptr, ptr %38, align 8
  %40 = ptrtoint ptr %39 to i64
  %41 = ptrtoint ptr %36 to i64
  %42 = sub i64 %40, %41
  tail call void @_ZdlPvm(ptr noundef nonnull %36, i64 noundef %42) #21
  br label %_ZNSt6vectorIN3g2o11CommandArgs15CommandArgumentESaIS2_EED2Ev.exit18

_ZNSt6vectorIN3g2o11CommandArgs15CommandArgumentESaIS2_EED2Ev.exit18: ; preds = %_ZSt8_DestroyIPN3g2o11CommandArgs15CommandArgumentES2_EvT_S4_RSaIT0_E.exit.i16, %37
  ret void
}